Archive member included because of file (symbol)

e:/arm_toolchain/bin/../lib/gcc/arm-none-eabi/4.5.2/thumb2\libgcc.a(_arm_addsubdf3.o)
                              ..\obj\channel_functions.o (__aeabi_i2d)
e:/arm_toolchain/bin/../lib/gcc/arm-none-eabi/4.5.2/thumb2\libgcc.a(_arm_muldivdf3.o)
                              ..\obj\channel_functions.o (__aeabi_dmul)
e:/arm_toolchain/bin/../lib/gcc/arm-none-eabi/4.5.2/thumb2\libgcc.a(_arm_fixunsdfsi.o)
                              ..\obj\channel_functions.o (__aeabi_d2uiz)

Allocating common symbols
Common symbol       size              file

UART2_rx_buffer     0x15e             ..\obj\uart_functions.o
TIM_TimeBaseStructure
                    0xa               ..\obj\peripheral_config.o
UART1_rx_buffer     0x15e             ..\obj\uart_functions.o
UART2_tx_buffer     0x15e             ..\obj\uart_functions.o
UART1_tx_buffer     0x15e             ..\obj\uart_functions.o
TIM_OCInitStructure
                    0x10              ..\obj\peripheral_config.o

Discarded input sections

 .text          0x00000000        0x0 ..\obj\stm32f10x_tim.o
 .data          0x00000000        0x0 ..\obj\stm32f10x_tim.o
 .bss           0x00000000        0x0 ..\obj\stm32f10x_tim.o
 .text.TIM_DeInit
                0x00000000      0x32c ..\obj\stm32f10x_tim.o
 .text.TIM_ICInit
                0x00000000      0x33c ..\obj\stm32f10x_tim.o
 .text.TIM_PWMIConfig
                0x00000000      0x13c ..\obj\stm32f10x_tim.o
 .text.TIM_BDTRConfig
                0x00000000      0x160 ..\obj\stm32f10x_tim.o
 .text.TIM_TimeBaseStructInit
                0x00000000       0x3c ..\obj\stm32f10x_tim.o
 .text.TIM_OCStructInit
                0x00000000       0x54 ..\obj\stm32f10x_tim.o
 .text.TIM_ICStructInit
                0x00000000       0x3c ..\obj\stm32f10x_tim.o
 .text.TIM_BDTRStructInit
                0x00000000       0x4c ..\obj\stm32f10x_tim.o
 .text.TIM_CtrlPWMOutputs
                0x00000000       0xac ..\obj\stm32f10x_tim.o
 .text.TIM_ITConfig
                0x00000000      0x150 ..\obj\stm32f10x_tim.o
 .text.TIM_GenerateEvent
                0x00000000      0x10c ..\obj\stm32f10x_tim.o
 .text.TIM_DMAConfig
                0x00000000      0x1b4 ..\obj\stm32f10x_tim.o
 .text.TIM_DMACmd
                0x00000000      0x10c ..\obj\stm32f10x_tim.o
 .text.TIM_InternalClockConfig
                0x00000000       0x98 ..\obj\stm32f10x_tim.o
 .text.TIM_ITRxExternalClockConfig
                0x00000000       0xc8 ..\obj\stm32f10x_tim.o
 .text.TIM_TIxExternalClockConfig
                0x00000000      0x110 ..\obj\stm32f10x_tim.o
 .text.TIM_ETRClockMode1Config
                0x00000000       0xf8 ..\obj\stm32f10x_tim.o
 .text.TIM_ETRClockMode2Config
                0x00000000       0xd4 ..\obj\stm32f10x_tim.o
 .text.TIM_ETRConfig
                0x00000000       0xf4 ..\obj\stm32f10x_tim.o
 .text.TIM_PrescalerConfig
                0x00000000      0x110 ..\obj\stm32f10x_tim.o
 .text.TIM_CounterModeConfig
                0x00000000       0xb4 ..\obj\stm32f10x_tim.o
 .text.TIM_SelectInputTrigger
                0x00000000       0xe8 ..\obj\stm32f10x_tim.o
 .text.TIM_EncoderInterfaceConfig
                0x00000000      0x13c ..\obj\stm32f10x_tim.o
 .text.TIM_ForcedOC1Config
                0x00000000      0x10c ..\obj\stm32f10x_tim.o
 .text.TIM_ForcedOC2Config
                0x00000000       0xcc ..\obj\stm32f10x_tim.o
 .text.TIM_ForcedOC3Config
                0x00000000       0xa0 ..\obj\stm32f10x_tim.o
 .text.TIM_ForcedOC4Config
                0x00000000       0xa8 ..\obj\stm32f10x_tim.o
 .text.TIM_SelectCOM
                0x00000000       0x9c ..\obj\stm32f10x_tim.o
 .text.TIM_SelectCCDMA
                0x00000000       0xc8 ..\obj\stm32f10x_tim.o
 .text.TIM_CCPreloadControl
                0x00000000       0xb0 ..\obj\stm32f10x_tim.o
 .text.TIM_OC1FastConfig
                0x00000000      0x10c ..\obj\stm32f10x_tim.o
 .text.TIM_OC2FastConfig
                0x00000000       0xcc ..\obj\stm32f10x_tim.o
 .text.TIM_OC3FastConfig
                0x00000000       0xa0 ..\obj\stm32f10x_tim.o
 .text.TIM_OC4FastConfig
                0x00000000       0xa8 ..\obj\stm32f10x_tim.o
 .text.TIM_ClearOC1Ref
                0x00000000       0xa0 ..\obj\stm32f10x_tim.o
 .text.TIM_ClearOC2Ref
                0x00000000       0xac ..\obj\stm32f10x_tim.o
 .text.TIM_ClearOC3Ref
                0x00000000       0xa0 ..\obj\stm32f10x_tim.o
 .text.TIM_ClearOC4Ref
                0x00000000       0xac ..\obj\stm32f10x_tim.o
 .text.TIM_OC1PolarityConfig
                0x00000000      0x10c ..\obj\stm32f10x_tim.o
 .text.TIM_OC1NPolarityConfig
                0x00000000       0x98 ..\obj\stm32f10x_tim.o
 .text.TIM_OC2PolarityConfig
                0x00000000       0xcc ..\obj\stm32f10x_tim.o
 .text.TIM_OC2NPolarityConfig
                0x00000000       0x7c ..\obj\stm32f10x_tim.o
 .text.TIM_OC3PolarityConfig
                0x00000000       0xa8 ..\obj\stm32f10x_tim.o
 .text.TIM_OC3NPolarityConfig
                0x00000000       0x7c ..\obj\stm32f10x_tim.o
 .text.TIM_OC4PolarityConfig
                0x00000000       0xa8 ..\obj\stm32f10x_tim.o
 .text.TIM_CCxCmd
                0x00000000      0x154 ..\obj\stm32f10x_tim.o
 .text.TIM_CCxNCmd
                0x00000000       0xd8 ..\obj\stm32f10x_tim.o
 .text.TIM_SelectOCxM
                0x00000000      0x1d8 ..\obj\stm32f10x_tim.o
 .text.TIM_UpdateDisableConfig
                0x00000000      0x128 ..\obj\stm32f10x_tim.o
 .text.TIM_UpdateRequestConfig
                0x00000000      0x128 ..\obj\stm32f10x_tim.o
 .text.TIM_SelectHallSensor
                0x00000000       0xc8 ..\obj\stm32f10x_tim.o
 .text.TIM_SelectOnePulseMode
                0x00000000      0x124 ..\obj\stm32f10x_tim.o
 .text.TIM_SelectOutputTrigger
                0x00000000      0x100 ..\obj\stm32f10x_tim.o
 .text.TIM_SelectSlaveMode
                0x00000000       0xd0 ..\obj\stm32f10x_tim.o
 .text.TIM_SelectMasterSlaveMode
                0x00000000       0xc4 ..\obj\stm32f10x_tim.o
 .text.TIM_SetCounter
                0x00000000       0xf0 ..\obj\stm32f10x_tim.o
 .text.TIM_SetAutoreload
                0x00000000       0xf0 ..\obj\stm32f10x_tim.o
 .text.TIM_SetCompare1
                0x00000000       0xd8 ..\obj\stm32f10x_tim.o
 .text.TIM_SetCompare2
                0x00000000       0x90 ..\obj\stm32f10x_tim.o
 .text.TIM_SetCompare3
                0x00000000       0x6c ..\obj\stm32f10x_tim.o
 .text.TIM_SetCompare4
                0x00000000       0x70 ..\obj\stm32f10x_tim.o
 .text.TIM_SetIC1Prescaler
                0x00000000      0x118 ..\obj\stm32f10x_tim.o
 .text.TIM_SetIC2Prescaler
                0x00000000       0xd4 ..\obj\stm32f10x_tim.o
 .text.TIM_SetIC3Prescaler
                0x00000000       0xac ..\obj\stm32f10x_tim.o
 .text.TIM_SetIC4Prescaler
                0x00000000       0xb0 ..\obj\stm32f10x_tim.o
 .text.TIM_SetClockDivision
                0x00000000      0x114 ..\obj\stm32f10x_tim.o
 .text.TIM_GetCapture1
                0x00000000       0xd8 ..\obj\stm32f10x_tim.o
 .text.TIM_GetCapture2
                0x00000000       0x90 ..\obj\stm32f10x_tim.o
 .text.TIM_GetCapture3
                0x00000000       0x6c ..\obj\stm32f10x_tim.o
 .text.TIM_GetCapture4
                0x00000000       0x6c ..\obj\stm32f10x_tim.o
 .text.TIM_GetCounter
                0x00000000       0xf0 ..\obj\stm32f10x_tim.o
 .text.TIM_GetPrescaler
                0x00000000       0xf0 ..\obj\stm32f10x_tim.o
 .text.TIM_GetFlagStatus
                0x00000000      0x170 ..\obj\stm32f10x_tim.o
 .text.TIM_ClearFlag
                0x00000000      0x110 ..\obj\stm32f10x_tim.o
 .text.TIM_GetITStatus
                0x00000000      0x170 ..\obj\stm32f10x_tim.o
 .text.TIM_ClearITPendingBit
                0x00000000      0x110 ..\obj\stm32f10x_tim.o
 .text.TI1_Config
                0x00000000       0xe4 ..\obj\stm32f10x_tim.o
 .text.TI2_Config
                0x00000000      0x100 ..\obj\stm32f10x_tim.o
 .text.TI3_Config
                0x00000000       0xf0 ..\obj\stm32f10x_tim.o
 .text.TI4_Config
                0x00000000      0x108 ..\obj\stm32f10x_tim.o
 .text          0x00000000        0x0 ..\obj\startup_stm32f10x_md_vl.o
 .data          0x00000000        0x0 ..\obj\startup_stm32f10x_md_vl.o
 .bss           0x00000000        0x0 ..\obj\startup_stm32f10x_md_vl.o
 .text          0x00000000        0x0 ..\obj\peripheral_config.o
 .data          0x00000000        0x0 ..\obj\peripheral_config.o
 .bss           0x00000000        0x0 ..\obj\peripheral_config.o
 .text          0x00000000        0x0 ..\obj\system_stm32f10x.o
 .data          0x00000000       0x14 ..\obj\system_stm32f10x.o
 .bss           0x00000000        0x0 ..\obj\system_stm32f10x.o
 .text.SystemCoreClockUpdate
                0x00000000       0xe4 ..\obj\system_stm32f10x.o
 .text          0x00000000        0x0 ..\obj\stm32f10x_gpio.o
 .data          0x00000000        0x0 ..\obj\stm32f10x_gpio.o
 .bss           0x00000000        0x0 ..\obj\stm32f10x_gpio.o
 .text.GPIO_DeInit
                0x00000000      0x160 ..\obj\stm32f10x_gpio.o
 .text.GPIO_AFIODeInit
                0x00000000       0x20 ..\obj\stm32f10x_gpio.o
 .text.GPIO_StructInit
                0x00000000       0x2c ..\obj\stm32f10x_gpio.o
 .text.GPIO_ReadInputDataBit
                0x00000000      0x118 ..\obj\stm32f10x_gpio.o
 .text.GPIO_ReadInputData
                0x00000000       0x7c ..\obj\stm32f10x_gpio.o
 .text.GPIO_ReadOutputDataBit
                0x00000000      0x118 ..\obj\stm32f10x_gpio.o
 .text.GPIO_ReadOutputData
                0x00000000       0x7c ..\obj\stm32f10x_gpio.o
 .text.GPIO_WriteBit
                0x00000000      0x120 ..\obj\stm32f10x_gpio.o
 .text.GPIO_Write
                0x00000000       0x7c ..\obj\stm32f10x_gpio.o
 .text.GPIO_PinLockConfig
                0x00000000       0xb4 ..\obj\stm32f10x_gpio.o
 .text.GPIO_EventOutputConfig
                0x00000000       0xe8 ..\obj\stm32f10x_gpio.o
 .text.GPIO_EventOutputCmd
                0x00000000       0x38 ..\obj\stm32f10x_gpio.o
 .text.GPIO_PinRemapConfig
                0x00000000      0x328 ..\obj\stm32f10x_gpio.o
 .text.GPIO_EXTILineConfig
                0x00000000      0x13c ..\obj\stm32f10x_gpio.o
 .text.GPIO_ETH_MediaInterfaceConfig
                0x00000000       0x34 ..\obj\stm32f10x_gpio.o
 .text          0x00000000        0x0 ..\obj\main.o
 .data          0x00000000        0x0 ..\obj\main.o
 .bss           0x00000000        0x0 ..\obj\main.o
 .text.delay_ms
                0x00000000       0x4c ..\obj\main.o
 .text          0x00000000        0x0 ..\obj\uart_functions.o
 .data          0x00000000        0x0 ..\obj\uart_functions.o
 .text.UART1_get_char
                0x00000000       0x78 ..\obj\uart_functions.o
 .text.UART1_put_char
                0x00000000       0xa0 ..\obj\uart_functions.o
 .text.UART1_put_str
                0x00000000       0x2c ..\obj\uart_functions.o
 .text.UART1_put_int
                0x00000000       0xbc ..\obj\uart_functions.o
 .text.UART2_get_char
                0x00000000       0x78 ..\obj\uart_functions.o
 .text.UART2_put_char
                0x00000000       0xa0 ..\obj\uart_functions.o
 .text.UART2_put_str
                0x00000000       0x2c ..\obj\uart_functions.o
 .text.UART2_put_int
                0x00000000       0xbc ..\obj\uart_functions.o
 .text          0x00000000        0x0 ..\obj\printf.o
 .data          0x00000000       0xf4 ..\obj\printf.o
 .bss           0x00000000        0x0 ..\obj\printf.o
 .text.PrintChar
                0x00000000       0x14 ..\obj\printf.o
 .text.PutChar  0x00000000       0x24 ..\obj\printf.o
 .text.PutString
                0x00000000       0x48 ..\obj\printf.o
 .text.PutUnsignedInt
                0x00000000       0xb4 ..\obj\printf.o
 .text.PutSignedInt
                0x00000000      0x11c ..\obj\printf.o
 .text.PutHexa  0x00000000       0xe8 ..\obj\printf.o
 .text.vsnprintf
                0x00000000      0x2a4 ..\obj\printf.o
 .text.snprintf
                0x00000000       0x34 ..\obj\printf.o
 .text.vsprintf
                0x00000000       0x28 ..\obj\printf.o
 .rodata        0x00000000       0x24 ..\obj\printf.o
 .text.vfprintf
                0x00000000       0x68 ..\obj\printf.o
 .text.vprintf  0x00000000       0x2c ..\obj\printf.o
 .text.fprintf  0x00000000       0x30 ..\obj\printf.o
 .text.printf   0x00000000       0x2c ..\obj\printf.o
 .text.sprintf  0x00000000       0x30 ..\obj\printf.o
 .text.puts     0x00000000       0x28 ..\obj\printf.o
 .text.fputc    0x00000000       0x44 ..\obj\printf.o
 .text.fputs    0x00000000       0x50 ..\obj\printf.o
 .text          0x00000000        0x0 ..\obj\stm32f10x_rcc.o
 .bss           0x00000000        0x0 ..\obj\stm32f10x_rcc.o
 .text.RCC_DeInit
                0x00000000       0x64 ..\obj\stm32f10x_rcc.o
 .text.RCC_HSEConfig
                0x00000000       0x7c ..\obj\stm32f10x_rcc.o
 .text.RCC_WaitForHSEStartUp
                0x00000000       0x64 ..\obj\stm32f10x_rcc.o
 .text.RCC_AdjustHSICalibrationValue
                0x00000000       0x54 ..\obj\stm32f10x_rcc.o
 .text.RCC_HSICmd
                0x00000000       0x38 ..\obj\stm32f10x_rcc.o
 .text.RCC_PLLConfig
                0x00000000       0xdc ..\obj\stm32f10x_rcc.o
 .text.RCC_PLLCmd
                0x00000000       0x38 ..\obj\stm32f10x_rcc.o
 .text.RCC_PREDIV1Config
                0x00000000       0xc4 ..\obj\stm32f10x_rcc.o
 .text.RCC_SYSCLKConfig
                0x00000000       0x58 ..\obj\stm32f10x_rcc.o
 .text.RCC_GetSYSCLKSource
                0x00000000       0x1c ..\obj\stm32f10x_rcc.o
 .text.RCC_HCLKConfig
                0x00000000       0x7c ..\obj\stm32f10x_rcc.o
 .text.RCC_PCLK1Config
                0x00000000       0x6c ..\obj\stm32f10x_rcc.o
 .text.RCC_PCLK2Config
                0x00000000       0x70 ..\obj\stm32f10x_rcc.o
 .text.RCC_ITConfig
                0x00000000       0x80 ..\obj\stm32f10x_rcc.o
 .text.RCC_USBCLKConfig
                0x00000000       0x34 ..\obj\stm32f10x_rcc.o
 .text.RCC_ADCCLKConfig
                0x00000000       0x64 ..\obj\stm32f10x_rcc.o
 .text.RCC_LSEConfig
                0x00000000       0x68 ..\obj\stm32f10x_rcc.o
 .text.RCC_LSICmd
                0x00000000       0x38 ..\obj\stm32f10x_rcc.o
 .text.RCC_RTCCLKConfig
                0x00000000       0x48 ..\obj\stm32f10x_rcc.o
 .text.RCC_RTCCLKCmd
                0x00000000       0x38 ..\obj\stm32f10x_rcc.o
 .text.RCC_AHBPeriphClockCmd
                0x00000000       0x78 ..\obj\stm32f10x_rcc.o
 .text.RCC_APB2PeriphResetCmd
                0x00000000       0x7c ..\obj\stm32f10x_rcc.o
 .text.RCC_APB1PeriphResetCmd
                0x00000000       0x7c ..\obj\stm32f10x_rcc.o
 .text.RCC_BackupResetCmd
                0x00000000       0x38 ..\obj\stm32f10x_rcc.o
 .text.RCC_ClockSecuritySystemCmd
                0x00000000       0x38 ..\obj\stm32f10x_rcc.o
 .text.RCC_MCOConfig
                0x00000000       0x48 ..\obj\stm32f10x_rcc.o
 .text.RCC_GetFlagStatus
                0x00000000       0xd0 ..\obj\stm32f10x_rcc.o
 .text.RCC_ClearFlag
                0x00000000       0x1c ..\obj\stm32f10x_rcc.o
 .text.RCC_GetITStatus
                0x00000000       0x70 ..\obj\stm32f10x_rcc.o
 .text.RCC_ClearITPendingBit
                0x00000000       0x3c ..\obj\stm32f10x_rcc.o
 .text          0x00000000        0x0 ..\obj\stm32f10x_usart.o
 .data          0x00000000        0x0 ..\obj\stm32f10x_usart.o
 .bss           0x00000000        0x0 ..\obj\stm32f10x_usart.o
 .text.USART_DeInit
                0x00000000      0x104 ..\obj\stm32f10x_usart.o
 .text.USART_StructInit
                0x00000000       0x44 ..\obj\stm32f10x_usart.o
 .text.USART_ClockInit
                0x00000000      0x100 ..\obj\stm32f10x_usart.o
 .text.USART_ClockStructInit
                0x00000000       0x34 ..\obj\stm32f10x_usart.o
 .text.USART_DMACmd
                0x00000000       0xc8 ..\obj\stm32f10x_usart.o
 .text.USART_SetAddress
                0x00000000       0x94 ..\obj\stm32f10x_usart.o
 .text.USART_WakeUpConfig
                0x00000000       0x98 ..\obj\stm32f10x_usart.o
 .text.USART_ReceiverWakeUpCmd
                0x00000000       0x9c ..\obj\stm32f10x_usart.o
 .text.USART_LINBreakDetectLengthConfig
                0x00000000       0x98 ..\obj\stm32f10x_usart.o
 .text.USART_LINCmd
                0x00000000       0x9c ..\obj\stm32f10x_usart.o
 .text.USART_SendBreak
                0x00000000       0x6c ..\obj\stm32f10x_usart.o
 .text.USART_SetGuardTime
                0x00000000       0x70 ..\obj\stm32f10x_usart.o
 .text.USART_SetPrescaler
                0x00000000       0x84 ..\obj\stm32f10x_usart.o
 .text.USART_SmartCardCmd
                0x00000000       0x84 ..\obj\stm32f10x_usart.o
 .text.USART_SmartCardNACKCmd
                0x00000000       0x84 ..\obj\stm32f10x_usart.o
 .text.USART_HalfDuplexCmd
                0x00000000       0x9c ..\obj\stm32f10x_usart.o
 .text.USART_OverSampling8Cmd
                0x00000000       0xa4 ..\obj\stm32f10x_usart.o
 .text.USART_OneBitMethodCmd
                0x00000000       0x9c ..\obj\stm32f10x_usart.o
 .text.USART_IrDAConfig
                0x00000000       0x98 ..\obj\stm32f10x_usart.o
 .text.USART_IrDACmd
                0x00000000       0x9c ..\obj\stm32f10x_usart.o
 .text.USART_GetFlagStatus
                0x00000000       0xfc ..\obj\stm32f10x_usart.o
 .text.USART_ClearFlag
                0x00000000       0xb4 ..\obj\stm32f10x_usart.o
 .text.USART_ClearITPendingBit
                0x00000000       0xe8 ..\obj\stm32f10x_usart.o
 .text          0x00000000        0x0 ..\obj\buffer.o
 .data          0x00000000        0x0 ..\obj\buffer.o
 .bss           0x00000000        0x0 ..\obj\buffer.o
 .text.BufferInit
                0x00000000       0x2c ..\obj\buffer.o
 .text.BufferPut
                0x00000000       0x68 ..\obj\buffer.o
 .text.BufferGet
                0x00000000       0x6c ..\obj\buffer.o
 .text.BufferIsEmpty
                0x00000000       0x2c ..\obj\buffer.o
 .text          0x00000000        0x0 ..\obj\syscalls.o
 .data          0x00000000        0x0 ..\obj\syscalls.o
 .bss           0x00000000        0x4 ..\obj\syscalls.o
 .text._sbrk    0x00000000       0x40 ..\obj\syscalls.o
 .text.link     0x00000000       0x1c ..\obj\syscalls.o
 .text._close   0x00000000       0x18 ..\obj\syscalls.o
 .text._fstat   0x00000000       0x24 ..\obj\syscalls.o
 .text._isatty  0x00000000       0x18 ..\obj\syscalls.o
 .text._lseek   0x00000000       0x1c ..\obj\syscalls.o
 .text._read    0x00000000       0x1c ..\obj\syscalls.o
 .text._write   0x00000000       0x1c ..\obj\syscalls.o
 .text.abort    0x00000000        0x8 ..\obj\syscalls.o
 .text          0x00000000        0x0 ..\obj\channel_functions.o
 .data          0x00000000        0x8 ..\obj\channel_functions.o
 .bss           0x00000000        0x0 ..\obj\channel_functions.o
 .text.ch1_puls
                0x00000000       0x40 ..\obj\channel_functions.o
 .text.ch2_puls
                0x00000000       0x3c ..\obj\channel_functions.o
 .text.ch3_puls
                0x00000000       0x3c ..\obj\channel_functions.o
 .text.ch4_puls
                0x00000000       0x40 ..\obj\channel_functions.o
 .text.ch5_puls
                0x00000000       0x3c ..\obj\channel_functions.o
 .text.ch6_puls
                0x00000000       0x3c ..\obj\channel_functions.o
 .text.ch7_puls
                0x00000000       0x3c ..\obj\channel_functions.o
 .text.ch8_puls
                0x00000000       0x40 ..\obj\channel_functions.o
 .text          0x00000000        0x0 ..\obj\misc.o
 .data          0x00000000        0x0 ..\obj\misc.o
 .bss           0x00000000        0x0 ..\obj\misc.o
 .text.NVIC_PriorityGroupConfig
                0x00000000       0x58 ..\obj\misc.o
 .text.NVIC_SetVectorTable
                0x00000000       0x5c ..\obj\misc.o
 .text.NVIC_SystemLPConfig
                0x00000000       0x78 ..\obj\misc.o
 .text.SysTick_CLKSourceConfig
                0x00000000       0x50 ..\obj\misc.o
 .text          0x00000000        0x0 ..\obj\esp8266.o
 .data          0x00000000        0x0 ..\obj\esp8266.o
 .bss           0x00000000        0x0 ..\obj\esp8266.o
 .text          0x00000000      0x370 e:/arm_toolchain/bin/../lib/gcc/arm-none-eabi/4.5.2/thumb2\libgcc.a(_arm_addsubdf3.o)
 .data          0x00000000        0x0 e:/arm_toolchain/bin/../lib/gcc/arm-none-eabi/4.5.2/thumb2\libgcc.a(_arm_addsubdf3.o)
 .bss           0x00000000        0x0 e:/arm_toolchain/bin/../lib/gcc/arm-none-eabi/4.5.2/thumb2\libgcc.a(_arm_addsubdf3.o)
 .text          0x00000000      0x424 e:/arm_toolchain/bin/../lib/gcc/arm-none-eabi/4.5.2/thumb2\libgcc.a(_arm_muldivdf3.o)
 .data          0x00000000        0x0 e:/arm_toolchain/bin/../lib/gcc/arm-none-eabi/4.5.2/thumb2\libgcc.a(_arm_muldivdf3.o)
 .bss           0x00000000        0x0 e:/arm_toolchain/bin/../lib/gcc/arm-none-eabi/4.5.2/thumb2\libgcc.a(_arm_muldivdf3.o)
 .text          0x00000000       0x40 e:/arm_toolchain/bin/../lib/gcc/arm-none-eabi/4.5.2/thumb2\libgcc.a(_arm_fixunsdfsi.o)
 .data          0x00000000        0x0 e:/arm_toolchain/bin/../lib/gcc/arm-none-eabi/4.5.2/thumb2\libgcc.a(_arm_fixunsdfsi.o)
 .bss           0x00000000        0x0 e:/arm_toolchain/bin/../lib/gcc/arm-none-eabi/4.5.2/thumb2\libgcc.a(_arm_fixunsdfsi.o)

Memory Configuration

Name             Origin             Length             Attributes
rom              0x08000000         0x00020000         xr
ram              0x20000000         0x00002000         xrw
*default*        0x00000000         0xffffffff

Linker script and memory map

                0x20002000                _eram = 0x20002000

.text           0x08000000     0x2a10
 *(.isr_vector)
 .isr_vector    0x08000000      0x124 ..\obj\startup_stm32f10x_md_vl.o
                0x08000000                g_pfnVectors
 *(.text*)
 .text.TIM_TimeBaseInit
                0x08000124      0x204 ..\obj\stm32f10x_tim.o
                0x08000124                TIM_TimeBaseInit
 .text.TIM_OC1Init
                0x08000328      0x2b0 ..\obj\stm32f10x_tim.o
                0x08000328                TIM_OC1Init
 .text.TIM_OC2Init
                0x080005d8      0x27c ..\obj\stm32f10x_tim.o
                0x080005d8                TIM_OC2Init
 .text.TIM_OC3Init
                0x08000854      0x24c ..\obj\stm32f10x_tim.o
                0x08000854                TIM_OC3Init
 .text.TIM_OC4Init
                0x08000aa0      0x1b8 ..\obj\stm32f10x_tim.o
                0x08000aa0                TIM_OC4Init
 .text.TIM_Cmd  0x08000c58      0x128 ..\obj\stm32f10x_tim.o
                0x08000c58                TIM_Cmd
 .text.TIM_ARRPreloadConfig
                0x08000d80      0x128 ..\obj\stm32f10x_tim.o
                0x08000d80                TIM_ARRPreloadConfig
 .text.TIM_OC1PreloadConfig
                0x08000ea8      0x10c ..\obj\stm32f10x_tim.o
                0x08000ea8                TIM_OC1PreloadConfig
 .text.TIM_OC2PreloadConfig
                0x08000fb4       0xcc ..\obj\stm32f10x_tim.o
                0x08000fb4                TIM_OC2PreloadConfig
 .text.TIM_OC3PreloadConfig
                0x08001080       0xa0 ..\obj\stm32f10x_tim.o
                0x08001080                TIM_OC3PreloadConfig
 .text.TIM_OC4PreloadConfig
                0x08001120       0xa8 ..\obj\stm32f10x_tim.o
                0x08001120                TIM_OC4PreloadConfig
 .text.Default_Reset_Handler
                0x080011c8       0x68 ..\obj\startup_stm32f10x_md_vl.o
                0x080011c8                Default_Reset_Handler
                0x080011c8                Reset_Handler
 .text.Default_Handler
                0x08001230        0x8 ..\obj\startup_stm32f10x_md_vl.o
                0x08001230                EXTI2_IRQHandler
                0x08001230                DebugMon_Handler
                0x08001230                TIM1_CC_IRQHandler
                0x08001230                HardFault_Handler
                0x08001230                SysTick_Handler
                0x08001230                PVD_IRQHandler
                0x08001230                PendSV_Handler
                0x08001230                NMI_Handler
                0x08001230                EXTI3_IRQHandler
                0x08001230                EXTI0_IRQHandler
                0x08001230                I2C2_EV_IRQHandler
                0x08001230                TIM1_UP_TIM16_IRQHandler
                0x08001230                UsageFault_Handler
                0x08001230                SPI1_IRQHandler
                0x08001230                TAMPER_IRQHandler
                0x08001230                TIM6_DAC_IRQHandler
                0x08001230                DMA1_Channel4_IRQHandler
                0x08001230                ADC1_IRQHandler
                0x08001230                USART3_IRQHandler
                0x08001230                RTC_IRQHandler
                0x08001230                DMA1_Channel7_IRQHandler
                0x08001230                TIM4_IRQHandler
                0x08001230                I2C1_EV_IRQHandler
                0x08001230                DMA1_Channel6_IRQHandler
                0x08001230                TIM3_IRQHandler
                0x08001230                RCC_IRQHandler
                0x08001230                DMA1_Channel1_IRQHandler
                0x08001230                CEC_IRQHandler
                0x08001230                EXTI15_10_IRQHandler
                0x08001230                TIM7_IRQHandler
                0x08001230                EXTI9_5_IRQHandler
                0x08001230                SPI2_IRQHandler
                0x08001230                MemManage_Handler
                0x08001230                SVC_Handler
                0x08001230                DMA1_Channel5_IRQHandler
                0x08001230                EXTI4_IRQHandler
                0x08001230                TIM1_TRG_COM_TIM17_IRQHandler
                0x08001230                DMA1_Channel3_IRQHandler
                0x08001230                WWDG_IRQHandler
                0x08001230                TIM2_IRQHandler
                0x08001230                EXTI1_IRQHandler
                0x08001230                RTCAlarm_IRQHandler
                0x08001230                I2C2_ER_IRQHandler
                0x08001230                DMA1_Channel2_IRQHandler
                0x08001230                FLASH_IRQHandler
                0x08001230                BusFault_Handler
                0x08001230                I2C1_ER_IRQHandler
                0x08001230                TIM1_BRK_TIM15_IRQHandler
 .text.RCC_Configuration
                0x08001238       0x20 ..\obj\peripheral_config.o
                0x08001238                RCC_Configuration
 .text.GPIO_Configuration
                0x08001258       0x68 ..\obj\peripheral_config.o
                0x08001258                GPIO_Configuration
 .text.TIMERS_Configuration
                0x080012c0      0x1b4 ..\obj\peripheral_config.o
                0x080012c0                TIMERS_Configuration
 .text.USART_Configuration
                0x08001474      0x198 ..\obj\peripheral_config.o
                0x08001474                USART_Configuration
 .text.SystemInit
                0x0800160c       0x70 ..\obj\system_stm32f10x.o
                0x0800160c                SystemInit
 .text.SetSysClock
                0x0800167c        0xc ..\obj\system_stm32f10x.o
 .text.SetSysClockTo24
                0x08001688       0xdc ..\obj\system_stm32f10x.o
 .text.GPIO_Init
                0x08001764      0x2a0 ..\obj\stm32f10x_gpio.o
                0x08001764                GPIO_Init
 .text.GPIO_SetBits
                0x08001a04       0x8c ..\obj\stm32f10x_gpio.o
                0x08001a04                GPIO_SetBits
 .text.GPIO_ResetBits
                0x08001a90       0x8c ..\obj\stm32f10x_gpio.o
                0x08001a90                GPIO_ResetBits
 .text.main     0x08001b1c       0x24 ..\obj\main.o
                0x08001b1c                main
 .text.assert_failed
                0x08001b40        0xc ..\obj\main.o
                0x08001b40                assert_failed
 .text.USART1_IRQHandler
                0x08001b4c      0x12c ..\obj\uart_functions.o
                0x08001b4c                USART1_IRQHandler
 .text.USART2_IRQHandler
                0x08001c78      0x12c ..\obj\uart_functions.o
                0x08001c78                USART2_IRQHandler
 .text.RCC_GetClocksFreq
                0x08001da4      0x17c ..\obj\stm32f10x_rcc.o
                0x08001da4                RCC_GetClocksFreq
 .text.RCC_APB2PeriphClockCmd
                0x08001f20       0x7c ..\obj\stm32f10x_rcc.o
                0x08001f20                RCC_APB2PeriphClockCmd
 .text.RCC_APB1PeriphClockCmd
                0x08001f9c       0x7c ..\obj\stm32f10x_rcc.o
                0x08001f9c                RCC_APB1PeriphClockCmd
 .text.USART_Init
                0x08002018      0x304 ..\obj\stm32f10x_usart.o
                0x08002018                USART_Init
 .text.USART_Cmd
                0x0800231c       0x9c ..\obj\stm32f10x_usart.o
                0x0800231c                USART_Cmd
 .text.USART_ITConfig
                0x080023b8      0x184 ..\obj\stm32f10x_usart.o
                0x080023b8                USART_ITConfig
 .text.USART_SendData
                0x0800253c       0x84 ..\obj\stm32f10x_usart.o
                0x0800253c                USART_SendData
 .text.USART_ReceiveData
                0x080025c0       0x6c ..\obj\stm32f10x_usart.o
                0x080025c0                USART_ReceiveData
 .text.USART_GetITStatus
                0x0800262c      0x1a4 ..\obj\stm32f10x_usart.o
                0x0800262c                USART_GetITStatus
 .text.NVIC_Init
                0x080027d0      0x118 ..\obj\misc.o
                0x080027d0                NVIC_Init
 *(.init)
 *(.fini)
 *crtbegin.o(.ctors)
 *crtbegin?.o(.ctors)
 *(EXCLUDE_FILE(*crtend.o *crtend?.o) .ctors)
 *(SORT(.ctors.*))
 *(.ctors)
 *crtbegin.o(.dtors)
 *crtbegin?.o(.dtors)
 *(EXCLUDE_FILE(*crtend.o *crtend?.o) .dtors)
 *(SORT(.dtors.*))
 *(.dtors)
 *(.rodata*)
 .rodata        0x080028e8       0x3c ..\obj\stm32f10x_tim.o
 .rodata        0x08002924       0x3c ..\obj\stm32f10x_gpio.o
 .rodata        0x08002960       0x3c ..\obj\stm32f10x_rcc.o
 .rodata        0x0800299c       0x40 ..\obj\stm32f10x_usart.o
 .rodata        0x080029dc       0x34 ..\obj\misc.o
 *(.eh_fram e*)

.glue_7         0x08002a10        0x0
 .glue_7        0x00000000        0x0 linker stubs

.glue_7t        0x08002a10        0x0
 .glue_7t       0x00000000        0x0 linker stubs

.vfp11_veneer   0x08002a10        0x0
 .vfp11_veneer  0x00000000        0x0 linker stubs

.v4_bx          0x08002a10        0x0
 .v4_bx         0x00000000        0x0 linker stubs

.ARM.extab
 *(.ARM.extab* .gnu.linkonce.armextab.*)
                0x08002a10                __exidx_start = .

.ARM.exidx
 *(.ARM.exidx* .gnu.linkonce.armexidx.*)
                0x08002a10                __exidx_end = .
                0x08002a10                __etext = .
                0x08002a10                _sidata = __etext

.data           0x20000000       0x14 load address 0x08002a10
                0x20000000                __data_start__ = .
                0x20000000                _sdata = __data_start__
 *(vtable)
 *(.data*)
 .data          0x20000000       0x14 ..\obj\stm32f10x_rcc.o
                0x20000014                . = ALIGN (0x4)
                0x20000014                PROVIDE (__preinit_array_start, .)
 *(.preinit_array)
                0x20000014                PROVIDE (__preinit_array_end, .)
                0x20000014                . = ALIGN (0x4)
                0x20000014                PROVIDE (__init_array_start, .)
 *(SORT(.init_array.*))
 *(.init_array)
                0x20000014                PROVIDE (__init_array_end, .)
                0x20000014                . = ALIGN (0x4)
                0x20000014                PROVIDE (__fini_array_start, .)
 *(SORT(.fini_array.*))
 *(.fini_array)
                0x20000014                PROVIDE (__fini_array_end, .)
 *(.jcr*)
                0x20000014                . = ALIGN (0x4)
                0x20000014                __data_end__ = .
                0x20000014                _edata = __data_end__

.bss            0x20000014      0x5d4 load address 0x08002a24
                0x20000014                . = ALIGN (0x4)
                0x20000014                __bss_start__ = .
                0x20000014                _sbss = __bss_start__
 *(.bss*)
 .bss           0x20000014       0x38 ..\obj\uart_functions.o
                0x20000014                UART1_rx_wr_index
                0x20000018                UART1_rx_rd_index
                0x2000001c                UART1_rx_counter
                0x20000020                UART1_rx_buffer_overflow
                0x20000024                UART1_tx_wr_index
                0x20000028                UART1_tx_rd_index
                0x2000002c                UART1_tx_counter
                0x20000030                UART2_rx_wr_index
                0x20000034                UART2_rx_rd_index
                0x20000038                UART2_rx_counter
                0x2000003c                UART2_rx_buffer_overflow
                0x20000040                UART2_tx_wr_index
                0x20000044                UART2_tx_rd_index
                0x20000048                UART2_tx_counter
 *(COMMON)
 COMMON         0x2000004c       0x1c ..\obj\peripheral_config.o
                0x2000004c                TIM_TimeBaseStructure
                0x20000058                TIM_OCInitStructure
 COMMON         0x20000068      0x57e ..\obj\uart_functions.o
                0x20000068                UART2_rx_buffer
                0x200001c8                UART1_rx_buffer
                0x20000328                UART2_tx_buffer
                0x20000488                UART1_tx_buffer
                0x200005e8                . = ALIGN (0x4)
 *fill*         0x200005e6        0x2 00
                0x200005e8                __bss_end__ = .
                0x200005e8                _ebss = __bss_end__

.heap           0x200005e8        0x0
                0x200005e8                __end__ = .
                0x200005e8                _end = __end__
                0x200005e8                end = __end__
 *(.heap*)
                0x200005e8                __HeapLimit = .

.co_stack       0x200005e8      0x400 load address 0x08002ff8
                0x200005e8                . = ALIGN (0x8)
 *(.co_stack .co_stack.*)
 .co_stack      0x200005e8      0x400 ..\obj\startup_stm32f10x_md_vl.o
                0x200005e8                pulStack
                0x20002000                __StackTop = 0x20002000
                0x20001c00                __StackLimit = (__StackTop - SIZEOF (.co_stack))
                0x20002000                PROVIDE (__stack, __StackTop)
                0x00000001                ASSERT ((__StackLimit >= __HeapLimit), region ram  overflowed with stack)
LOAD ..\obj\stm32f10x_tim.o
LOAD ..\obj\startup_stm32f10x_md_vl.o
LOAD ..\obj\peripheral_config.o
LOAD ..\obj\system_stm32f10x.o
LOAD ..\obj\stm32f10x_gpio.o
LOAD ..\obj\main.o
LOAD ..\obj\uart_functions.o
LOAD ..\obj\printf.o
LOAD ..\obj\stm32f10x_rcc.o
LOAD ..\obj\stm32f10x_usart.o
LOAD ..\obj\buffer.o
LOAD ..\obj\syscalls.o
LOAD ..\obj\channel_functions.o
LOAD ..\obj\misc.o
LOAD ..\obj\esp8266.o
START GROUP
LOAD e:/arm_toolchain/bin/../lib/gcc/arm-none-eabi/4.5.2/thumb2\libgcc.a
LOAD e:/arm_toolchain/bin/../lib/gcc/arm-none-eabi/4.5.2/../../../../arm-none-eabi/lib/thumb2\libc.a
END GROUP
OUTPUT(PWM1.elf elf32-littlearm)

.debug_abbrev   0x00000000     0x11dc
 .debug_abbrev  0x00000000      0x172 ..\obj\stm32f10x_tim.o
 .debug_abbrev  0x00000172       0xa3 ..\obj\startup_stm32f10x_md_vl.o
 .debug_abbrev  0x00000215      0x132 ..\obj\peripheral_config.o
 .debug_abbrev  0x00000347      0x153 ..\obj\system_stm32f10x.o
 .debug_abbrev  0x0000049a      0x1a4 ..\obj\stm32f10x_gpio.o
 .debug_abbrev  0x0000063e       0xef ..\obj\main.o
 .debug_abbrev  0x0000072d      0x15e ..\obj\uart_functions.o
 .debug_abbrev  0x0000088b      0x23f ..\obj\printf.o
 .debug_abbrev  0x00000aca      0x191 ..\obj\stm32f10x_rcc.o
 .debug_abbrev  0x00000c5b      0x15b ..\obj\stm32f10x_usart.o
 .debug_abbrev  0x00000db6      0x106 ..\obj\buffer.o
 .debug_abbrev  0x00000ebc       0xde ..\obj\syscalls.o
 .debug_abbrev  0x00000f9a       0xcf ..\obj\channel_functions.o
 .debug_abbrev  0x00001069      0x126 ..\obj\misc.o
 .debug_abbrev  0x0000118f       0x4d ..\obj\esp8266.o

.debug_info     0x00000000     0x72b4
 .debug_info    0x00000000     0x1e23 ..\obj\stm32f10x_tim.o
 .debug_info    0x00001e23      0x143 ..\obj\startup_stm32f10x_md_vl.o
 .debug_info    0x00001f66      0x933 ..\obj\peripheral_config.o
 .debug_info    0x00002899      0x472 ..\obj\system_stm32f10x.o
 .debug_info    0x00002d0b      0x73a ..\obj\stm32f10x_gpio.o
 .debug_info    0x00003445      0x449 ..\obj\main.o
 .debug_info    0x0000388e      0x64b ..\obj\uart_functions.o
 .debug_info    0x00003ed9      0xefe ..\obj\printf.o
 .debug_info    0x00004dd7      0x981 ..\obj\stm32f10x_rcc.o
 .debug_info    0x00005758      0xa77 ..\obj\stm32f10x_usart.o
 .debug_info    0x000061cf      0x1f7 ..\obj\buffer.o
 .debug_info    0x000063c6      0x440 ..\obj\syscalls.o
 .debug_info    0x00006806      0x486 ..\obj\channel_functions.o
 .debug_info    0x00006c8c      0x594 ..\obj\misc.o
 .debug_info    0x00007220       0x94 ..\obj\esp8266.o

.debug_line     0x00000000     0x515d
 .debug_line    0x00000000     0x2464 ..\obj\stm32f10x_tim.o
 .debug_line    0x00002464       0x9f ..\obj\startup_stm32f10x_md_vl.o
 .debug_line    0x00002503      0x23e ..\obj\peripheral_config.o
 .debug_line    0x00002741      0x1e2 ..\obj\system_stm32f10x.o
 .debug_line    0x00002923      0x821 ..\obj\stm32f10x_gpio.o
 .debug_line    0x00003144      0x15e ..\obj\main.o
 .debug_line    0x000032a2      0x2ab ..\obj\uart_functions.o
 .debug_line    0x0000354d      0x3b7 ..\obj\printf.o
 .debug_line    0x00003904      0x751 ..\obj\stm32f10x_rcc.o
 .debug_line    0x00004055      0x965 ..\obj\stm32f10x_usart.o
 .debug_line    0x000049ba      0x194 ..\obj\buffer.o
 .debug_line    0x00004b4e      0x171 ..\obj\syscalls.o
 .debug_line    0x00004cbf      0x1b1 ..\obj\channel_functions.o
 .debug_line    0x00004e70      0x23b ..\obj\misc.o
 .debug_line    0x000050ab       0xb2 ..\obj\esp8266.o

.debug_loc      0x00000000     0x337a
 .debug_loc     0x00000000     0x13e8 ..\obj\stm32f10x_tim.o
 .debug_loc     0x000013e8       0x64 ..\obj\startup_stm32f10x_md_vl.o
 .debug_loc     0x0000144c       0xc8 ..\obj\peripheral_config.o
 .debug_loc     0x00001514       0xc8 ..\obj\system_stm32f10x.o
 .debug_loc     0x000015dc      0x3e4 ..\obj\stm32f10x_gpio.o
 .debug_loc     0x000019c0       0xa8 ..\obj\main.o
 .debug_loc     0x00001a68      0x218 ..\obj\uart_functions.o
 .debug_loc     0x00001c80      0x3ea ..\obj\printf.o
 .debug_loc     0x0000206a      0x714 ..\obj\stm32f10x_rcc.o
 .debug_loc     0x0000277e      0x658 ..\obj\stm32f10x_usart.o
 .debug_loc     0x00002dd6       0xe0 ..\obj\buffer.o
 .debug_loc     0x00002eb6      0x1ec ..\obj\syscalls.o
 .debug_loc     0x000030a2      0x1c0 ..\obj\channel_functions.o
 .debug_loc     0x00003262      0x118 ..\obj\misc.o

.debug_pubnames
                0x00000000     0x1570
 .debug_pubnames
                0x00000000      0x7b0 ..\obj\stm32f10x_tim.o
 .debug_pubnames
                0x000007b0       0x4a ..\obj\startup_stm32f10x_md_vl.o
 .debug_pubnames
                0x000007fa       0xa2 ..\obj\peripheral_config.o
 .debug_pubnames
                0x0000089c       0x61 ..\obj\system_stm32f10x.o
 .debug_pubnames
                0x000008fd      0x19d ..\obj\stm32f10x_gpio.o
 .debug_pubnames
                0x00000a9a       0x3a ..\obj\main.o
 .debug_pubnames
                0x00000ad4      0x260 ..\obj\uart_functions.o
 .debug_pubnames
                0x00000d34      0x101 ..\obj\printf.o
 .debug_pubnames
                0x00000e35      0x2da ..\obj\stm32f10x_rcc.o
 .debug_pubnames
                0x0000110f      0x294 ..\obj\stm32f10x_usart.o
 .debug_pubnames
                0x000013a3       0x4f ..\obj\buffer.o
 .debug_pubnames
                0x000013f2       0x71 ..\obj\syscalls.o
 .debug_pubnames
                0x00001463       0x84 ..\obj\channel_functions.o
 .debug_pubnames
                0x000014e7       0x89 ..\obj\misc.o

.debug_pubtypes
                0x00000000      0x8d7
 .debug_pubtypes
                0x00000000       0xe4 ..\obj\stm32f10x_tim.o
 .debug_pubtypes
                0x000000e4      0x144 ..\obj\peripheral_config.o
 .debug_pubtypes
                0x00000228       0x61 ..\obj\system_stm32f10x.o
 .debug_pubtypes
                0x00000289       0xd7 ..\obj\stm32f10x_gpio.o
 .debug_pubtypes
                0x00000360       0x65 ..\obj\main.o
 .debug_pubtypes
                0x000003c5       0x67 ..\obj\uart_functions.o
 .debug_pubtypes
                0x0000042c      0x145 ..\obj\printf.o
 .debug_pubtypes
                0x00000571       0xaa ..\obj\stm32f10x_rcc.o
 .debug_pubtypes
                0x0000061b       0xd5 ..\obj\stm32f10x_usart.o
 .debug_pubtypes
                0x000006f0       0x4b ..\obj\buffer.o
 .debug_pubtypes
                0x0000073b       0xaa ..\obj\syscalls.o
 .debug_pubtypes
                0x000007e5       0x48 ..\obj\channel_functions.o
 .debug_pubtypes
                0x0000082d       0x8c ..\obj\misc.o
 .debug_pubtypes
                0x000008b9       0x1e ..\obj\esp8266.o

.debug_aranges  0x00000000      0x8b8
 .debug_aranges
                0x00000000      0x2f0 ..\obj\stm32f10x_tim.o
 .debug_aranges
                0x000002f0       0x28 ..\obj\startup_stm32f10x_md_vl.o
 .debug_aranges
                0x00000318       0x38 ..\obj\peripheral_config.o
 .debug_aranges
                0x00000350       0x38 ..\obj\system_stm32f10x.o
 .debug_aranges
                0x00000388       0xa8 ..\obj\stm32f10x_gpio.o
 .debug_aranges
                0x00000430       0x30 ..\obj\main.o
 .debug_aranges
                0x00000460       0x68 ..\obj\uart_functions.o
 .debug_aranges
                0x000004c8       0xa0 ..\obj\printf.o
 .debug_aranges
                0x00000568      0x120 ..\obj\stm32f10x_rcc.o
 .debug_aranges
                0x00000688      0x100 ..\obj\stm32f10x_usart.o
 .debug_aranges
                0x00000788       0x38 ..\obj\buffer.o
 .debug_aranges
                0x000007c0       0x60 ..\obj\syscalls.o
 .debug_aranges
                0x00000820       0x58 ..\obj\channel_functions.o
 .debug_aranges
                0x00000878       0x40 ..\obj\misc.o

.debug_ranges   0x00000000      0x7d8
 .debug_ranges  0x00000000      0x2e0 ..\obj\stm32f10x_tim.o
 .debug_ranges  0x000002e0       0x18 ..\obj\startup_stm32f10x_md_vl.o
 .debug_ranges  0x000002f8       0x28 ..\obj\peripheral_config.o
 .debug_ranges  0x00000320       0x28 ..\obj\system_stm32f10x.o
 .debug_ranges  0x00000348       0x98 ..\obj\stm32f10x_gpio.o
 .debug_ranges  0x000003e0       0x20 ..\obj\main.o
 .debug_ranges  0x00000400       0x58 ..\obj\uart_functions.o
 .debug_ranges  0x00000458       0x90 ..\obj\printf.o
 .debug_ranges  0x000004e8      0x110 ..\obj\stm32f10x_rcc.o
 .debug_ranges  0x000005f8       0xf0 ..\obj\stm32f10x_usart.o
 .debug_ranges  0x000006e8       0x28 ..\obj\buffer.o
 .debug_ranges  0x00000710       0x50 ..\obj\syscalls.o
 .debug_ranges  0x00000760       0x48 ..\obj\channel_functions.o
 .debug_ranges  0x000007a8       0x30 ..\obj\misc.o

.debug_str      0x00000000     0x2937
 .debug_str     0x00000000      0xc93 ..\obj\stm32f10x_tim.o
                                0xd3c (size before relaxing)
 .debug_str     0x00000c93       0xad ..\obj\startup_stm32f10x_md_vl.o
                                 0xd8 (size before relaxing)
 .debug_str     0x00000d40      0x5b1 ..\obj\peripheral_config.o
                                0x8a1 (size before relaxing)
 .debug_str     0x000012f1      0x15c ..\obj\system_stm32f10x.o
                                0x239 (size before relaxing)
 .debug_str     0x0000144d      0x25b ..\obj\stm32f10x_gpio.o
                                0x478 (size before relaxing)
 .debug_str     0x000016a8       0x7a ..\obj\main.o
                                0x271 (size before relaxing)
 .debug_str     0x00001722      0x20e ..\obj\uart_functions.o
                                0x362 (size before relaxing)
 .debug_str     0x00001930      0x4a1 ..\obj\printf.o
                                0x5d9 (size before relaxing)
 .debug_str     0x00001dd1      0x417 ..\obj\stm32f10x_rcc.o
                                0x5cc (size before relaxing)
 .debug_str     0x000021e8      0x3a3 ..\obj\stm32f10x_usart.o
                                0x5ef (size before relaxing)
 .debug_str     0x0000258b       0x67 ..\obj\buffer.o
                                0x13b (size before relaxing)
 .debug_str     0x000025f2      0x141 ..\obj\syscalls.o
                                0x244 (size before relaxing)
 .debug_str     0x00002733       0x88 ..\obj\channel_functions.o
                                0x25b (size before relaxing)
 .debug_str     0x000027bb      0x153 ..\obj\misc.o
                                0x328 (size before relaxing)
 .debug_str     0x0000290e       0x29 ..\obj\esp8266.o
                                 0xce (size before relaxing)

.comment        0x00000000       0x11
 .comment       0x00000000       0x11 ..\obj\stm32f10x_tim.o
                                 0x12 (size before relaxing)
 .comment       0x00000000       0x12 ..\obj\startup_stm32f10x_md_vl.o
 .comment       0x00000000       0x12 ..\obj\peripheral_config.o
 .comment       0x00000000       0x12 ..\obj\system_stm32f10x.o
 .comment       0x00000000       0x12 ..\obj\stm32f10x_gpio.o
 .comment       0x00000000       0x12 ..\obj\main.o
 .comment       0x00000000       0x12 ..\obj\uart_functions.o
 .comment       0x00000000       0x12 ..\obj\printf.o
 .comment       0x00000000       0x12 ..\obj\stm32f10x_rcc.o
 .comment       0x00000000       0x12 ..\obj\stm32f10x_usart.o
 .comment       0x00000000       0x12 ..\obj\buffer.o
 .comment       0x00000000       0x12 ..\obj\syscalls.o
 .comment       0x00000000       0x12 ..\obj\channel_functions.o
 .comment       0x00000000       0x12 ..\obj\misc.o
 .comment       0x00000000       0x12 ..\obj\esp8266.o

.ARM.attributes
                0x00000000       0x31
 .ARM.attributes
                0x00000000       0x31 ..\obj\stm32f10x_tim.o
 .ARM.attributes
                0x00000031       0x31 ..\obj\startup_stm32f10x_md_vl.o
 .ARM.attributes
                0x00000062       0x31 ..\obj\peripheral_config.o
 .ARM.attributes
                0x00000093       0x31 ..\obj\system_stm32f10x.o
 .ARM.attributes
                0x000000c4       0x31 ..\obj\stm32f10x_gpio.o
 .ARM.attributes
                0x000000f5       0x31 ..\obj\main.o
 .ARM.attributes
                0x00000126       0x31 ..\obj\uart_functions.o
 .ARM.attributes
                0x00000157       0x31 ..\obj\printf.o
 .ARM.attributes
                0x00000188       0x31 ..\obj\stm32f10x_rcc.o
 .ARM.attributes
                0x000001b9       0x31 ..\obj\stm32f10x_usart.o
 .ARM.attributes
                0x000001ea       0x31 ..\obj\buffer.o
 .ARM.attributes
                0x0000021b       0x31 ..\obj\syscalls.o
 .ARM.attributes
                0x0000024c       0x31 ..\obj\channel_functions.o
 .ARM.attributes
                0x0000027d       0x31 ..\obj\misc.o
 .ARM.attributes
                0x000002ae       0x31 ..\obj\esp8266.o
 .ARM.attributes
                0x000002df       0x1b e:/arm_toolchain/bin/../lib/gcc/arm-none-eabi/4.5.2/thumb2\libgcc.a(_arm_addsubdf3.o)
 .ARM.attributes
                0x000002fa       0x1b e:/arm_toolchain/bin/../lib/gcc/arm-none-eabi/4.5.2/thumb2\libgcc.a(_arm_muldivdf3.o)
 .ARM.attributes
                0x00000315       0x1b e:/arm_toolchain/bin/../lib/gcc/arm-none-eabi/4.5.2/thumb2\libgcc.a(_arm_fixunsdfsi.o)

.debug_frame    0x00000000     0x1de8
 .debug_frame   0x00000000      0xb50 ..\obj\stm32f10x_tim.o
 .debug_frame   0x00000b50       0x48 ..\obj\startup_stm32f10x_md_vl.o
 .debug_frame   0x00000b98       0x88 ..\obj\peripheral_config.o
 .debug_frame   0x00000c20       0x80 ..\obj\system_stm32f10x.o
 .debug_frame   0x00000ca0      0x248 ..\obj\stm32f10x_gpio.o
 .debug_frame   0x00000ee8       0x68 ..\obj\main.o
 .debug_frame   0x00000f50      0x150 ..\obj\uart_functions.o
 .debug_frame   0x000010a0      0x244 ..\obj\printf.o
 .debug_frame   0x000012e4      0x414 ..\obj\stm32f10x_rcc.o
 .debug_frame   0x000016f8      0x3a8 ..\obj\stm32f10x_usart.o
 .debug_frame   0x00001aa0       0x80 ..\obj\buffer.o
 .debug_frame   0x00001b20      0x108 ..\obj\syscalls.o
 .debug_frame   0x00001c28      0x110 ..\obj\channel_functions.o
 .debug_frame   0x00001d38       0xb0 ..\obj\misc.o
